target datalayout = "e-m:e-p270:32:32-p271:32:32-p272:64:64-i64:64-i128:128-f80:128-n8:16:32:64-S128"
target triple = "x86_64-pc-linux-gnu"

; Function Attrs: cold nounwind optsize uwtable
define void @ff_permute_scantable(ptr noundef %0, ptr noundef %1, ptr noundef %2) #0 {
  %4 = alloca ptr, align 8
  %5 = alloca ptr, align 8
  %6 = alloca ptr, align 8
  %7 = alloca i32, align 4
  %8 = alloca i32, align 4
  store ptr %0, ptr %4, align 8, !tbaa !4
  store ptr %1, ptr %5, align 8, !tbaa !4
  store ptr %2, ptr %6, align 8, !tbaa !4
  call void @llvm.lifetime.start.p0(i64 4, ptr %7) #5
  store i32 0, ptr %7, align 4, !tbaa !9
  br label %9

9:                                                ; preds = %29, %3
  %10 = load i32, ptr %7, align 4, !tbaa !9
  %11 = icmp slt i32 %10, 64
  br i1 %11, label %13, label %12

12:                                               ; preds = %9
  call void @llvm.lifetime.end.p0(i64 4, ptr %7) #5
  br label %32

13:                                               ; preds = %9
  call void @llvm.lifetime.start.p0(i64 4, ptr %8) #5
  %14 = load ptr, ptr %5, align 8, !tbaa !4
  %15 = load i32, ptr %7, align 4, !tbaa !9
  %16 = sext i32 %15 to i64
  %17 = getelementptr inbounds i8, ptr %14, i64 %16
  %18 = load i8, ptr %17, align 1, !tbaa !11
  %19 = zext i8 %18 to i32
  store i32 %19, ptr %8, align 4, !tbaa !9
  %20 = load ptr, ptr %6, align 8, !tbaa !4
  %21 = load i32, ptr %8, align 4, !tbaa !9
  %22 = sext i32 %21 to i64
  %23 = getelementptr inbounds i8, ptr %20, i64 %22
  %24 = load i8, ptr %23, align 1, !tbaa !11
  %25 = load ptr, ptr %4, align 8, !tbaa !4
  %26 = load i32, ptr %7, align 4, !tbaa !9
  %27 = sext i32 %26 to i64
  %28 = getelementptr inbounds i8, ptr %25, i64 %27
  store i8 %24, ptr %28, align 1, !tbaa !11
  call void @llvm.lifetime.end.p0(i64 4, ptr %8) #5
  br label %29

29:                                               ; preds = %13
  %30 = load i32, ptr %7, align 4, !tbaa !9
  %31 = add nsw i32 %30, 1
  store i32 %31, ptr %7, align 4, !tbaa !9
  br label %9, !llvm.loop !12

32:                                               ; preds = %12
  ret void
}