; Function Attrs: cold nofree norecurse nosync nounwind optsize memory(argmem: readwrite) uwtable
define void @ff_permute_scantable(ptr noundef writeonly captures(none) %0, ptr noundef readonly captures(none) %1, ptr noundef readonly captures(none) %2) local_unnamed_addr #0 {
  br label %5

4:                                                ; preds = %5
  ret void

5:                                                ; preds = %3, %5
  %indvars.iv = phi i64 [ 0, %3 ], [ %indvars.iv.next, %5 ]
  %6 = getelementptr inbounds nuw i8, ptr %1, i64 %indvars.iv
  %7 = load i8, ptr %6, align 1, !tbaa !4
  %8 = zext i8 %7 to i64
  %9 = getelementptr inbounds nuw i8, ptr %2, i64 %8
  %10 = load i8, ptr %9, align 1, !tbaa !4
  %11 = getelementptr inbounds nuw i8, ptr %0, i64 %indvars.iv
  store i8 %10, ptr %11, align 1, !tbaa !4
  %indvars.iv.next = add nuw nsw i64 %indvars.iv, 1
  %exitcond.not = icmp eq i64 %indvars.iv.next, 64
  br i1 %exitcond.not, label %4, label %5, !llvm.loop !7
}